target datalayout = "e-m:e-p270:32:32-p271:32:32-p272:64:64-i64:64-i128:128-f80:128-n8:16:32:64-S128"
target triple = "x86_64-pc-linux-gnu"

%class.Type = type <{ ptr, ptr, i32, [4 x i8] }>
%class.TypeOopPtr = type { %class.TypePtr.base, ptr, ptr, ptr, i8, i8, i8, i8, i32 }
%class.TypePtr.base = type <{ %class.Type.base, [4 x i8], ptr, i32, i32, i32 }>
%class.Type.base = type <{ ptr, ptr, i32 }>

; Function Attrs: mustprogress nounwind uwtable
define linkonce_odr hidden noundef ptr @_ZNK4Type11isa_instptrEv(ptr noundef nonnull align 8 dereferenceable(20) %0) #1 comdat align 2 {
  %2 = alloca ptr, align 8
  store ptr %0, ptr %2, align 8
  %3 = load ptr, ptr %2, align 8
  %4 = getelementptr inbounds %class.Type, ptr %3, i32 0, i32 2
  %5 = load i32, ptr %4, align 8
  %6 = icmp eq i32 %5, 21
  br i1 %6, label %7, label %8

7:                                                ; preds = %1
  br label %9

8:                                                ; preds = %1
  br label %9

9:                                                ; preds = %8, %7
  %10 = phi ptr [ %3, %7 ], [ null, %8 ]
  ret ptr %10
}

; Function Attrs: mustprogress nounwind uwtable
define linkonce_odr hidden noundef zeroext i1 @_ZNK10ciMetadata6equalsEPS_(ptr noundef nonnull align 8 dereferenceable(24) %0, ptr noundef %1) #1 comdat align 2 {
  %3 = alloca ptr, align 8
  %4 = alloca ptr, align 8
  store ptr %0, ptr %3, align 8
  store ptr %1, ptr %4, align 8
  %5 = load ptr, ptr %3, align 8
  %6 = load ptr, ptr %4, align 8
  %7 = icmp eq ptr %5, %6
  ret i1 %7
}

; Function Attrs: mustprogress nounwind uwtable
define linkonce_odr hidden noundef ptr @_ZNK10TypeOopPtr16is_instance_typeEPKS_(ptr noundef nonnull align 8 dereferenceable(80) %0, ptr noundef %1) #1 comdat align 2 {
  %3 = alloca ptr, align 8
  %4 = alloca ptr, align 8
  store ptr %0, ptr %3, align 8
  store ptr %1, ptr %4, align 8
  %5 = load ptr, ptr %4, align 8
  %6 = call noundef ptr @_ZNK4Type11isa_instptrEv(ptr noundef nonnull align 8 dereferenceable(20) %5)
  ret ptr %6
}

; Function Attrs: mustprogress nounwind uwtable
define linkonce_odr hidden noundef zeroext i1 @_ZN7TypePtr40is_same_java_type_as_helper_for_instanceI11TypeInstPtr10TypeOopPtrEEbPKT_PKT0_(ptr noundef %0, ptr noundef %1) #1 comdat align 2 {
  %3 = alloca i1, align 1
  %4 = alloca ptr, align 8
  %5 = alloca ptr, align 8
  store ptr %0, ptr %4, align 8
  store ptr %1, ptr %5, align 8
  %6 = load ptr, ptr %4, align 8
  %7 = load ptr, ptr %6, align 8
  %8 = getelementptr inbounds ptr, ptr %7, i64 33
  %9 = load ptr, ptr %8, align 8
  %10 = call noundef zeroext i1 %9(ptr noundef nonnull align 8 dereferenceable(80) %6)
  br i1 %10, label %11, label %17

11:                                               ; preds = %2
  %12 = load ptr, ptr %5, align 8
  %13 = load ptr, ptr %12, align 8
  %14 = getelementptr inbounds ptr, ptr %13, i64 33
  %15 = load ptr, ptr %14, align 8
  %16 = call noundef zeroext i1 %15(ptr noundef nonnull align 8 dereferenceable(80) %12)
  br i1 %16, label %18, label %17

17:                                               ; preds = %11, %2
  store i1 false, ptr %3, align 1
  br label %49

18:                                               ; preds = %11
  %19 = load ptr, ptr %4, align 8
  %20 = load ptr, ptr %5, align 8
  %21 = call noundef ptr @_ZNK10TypeOopPtr16is_instance_typeEPKS_(ptr noundef nonnull align 8 dereferenceable(80) %19, ptr noundef %20)
  %22 = icmp ne ptr %21, null
  br i1 %22, label %24, label %23

23:                                               ; preds = %18
  store i1 false, ptr %3, align 1
  br label %49

24:                                               ; preds = %18
  %25 = load ptr, ptr %4, align 8
  %26 = load ptr, ptr %25, align 8
  %27 = getelementptr inbounds ptr, ptr %26, i64 29
  %28 = load ptr, ptr %27, align 8
  %29 = call noundef ptr %28(ptr noundef nonnull align 8 dereferenceable(80) %25)
  %30 = load ptr, ptr %5, align 8
  %31 = load ptr, ptr %30, align 8
  %32 = getelementptr inbounds ptr, ptr %31, i64 29
  %33 = load ptr, ptr %32, align 8
  %34 = call noundef ptr %33(ptr noundef nonnull align 8 dereferenceable(80) %30)
  %35 = call noundef zeroext i1 @_ZNK10ciMetadata6equalsEPS_(ptr noundef nonnull align 8 dereferenceable(24) %29, ptr noundef %34)
  br i1 %35, label %36, label %47

36:                                               ; preds = %24
  %37 = load ptr, ptr %4, align 8
  %38 = getelementptr inbounds %class.TypeOopPtr, ptr %37, i32 0, i32 3
  %39 = load ptr, ptr %38, align 8
  %40 = load ptr, ptr %5, align 8
  %41 = getelementptr inbounds %class.TypeOopPtr, ptr %40, i32 0, i32 3
  %42 = load ptr, ptr %41, align 8
  %43 = load ptr, ptr %39, align 8
  %44 = getelementptr inbounds ptr, ptr %43, i64 0
  %45 = load ptr, ptr %44, align 8
  %46 = call noundef zeroext i1 %45(ptr noundef nonnull align 8 dereferenceable(64) %39, ptr noundef %42)
  br label %47

47:                                               ; preds = %36, %24
  %48 = phi i1 [ false, %24 ], [ %46, %36 ]
  store i1 %48, ptr %3, align 1
  br label %49

49:                                               ; preds = %47, %23, %17
  %50 = load i1, ptr %3, align 1
  ret i1 %50
}

; Function Attrs: mustprogress nounwind uwtable
define hidden noundef zeroext i1 @_ZNK11TypeInstPtr27is_same_java_type_as_helperEPK10TypeOopPtr(ptr noundef nonnull align 8 dereferenceable(80) %0, ptr noundef %1) unnamed_addr #1 align 2 {
  %3 = alloca ptr, align 8
  %4 = alloca ptr, align 8
  store ptr %0, ptr %3, align 8
  store ptr %1, ptr %4, align 8
  %5 = load ptr, ptr %3, align 8
  %6 = load ptr, ptr %4, align 8
  %7 = call noundef zeroext i1 @_ZN7TypePtr40is_same_java_type_as_helper_for_instanceI11TypeInstPtr10TypeOopPtrEEbPKT_PKT0_(ptr noundef %5, ptr noundef %6)
  ret i1 %7
}