; Function Attrs: mustprogress nounwind uwtable
define hidden noundef zeroext i1 @_ZNK11TypeInstPtr27is_same_java_type_as_helperEPK10TypeOopPtr(ptr noundef nonnull align 8 dereferenceable(80) %0, ptr noundef %1) unnamed_addr #0 align 2 {
  %3 = load ptr, ptr %0, align 8
  %4 = getelementptr inbounds i8, ptr %3, i64 264
  %5 = load ptr, ptr %4, align 8
  %6 = tail call noundef zeroext i1 %5(ptr noundef nonnull align 8 dereferenceable(80) %0) #17
  br i1 %6, label %7, label %_ZN7TypePtr40is_same_java_type_as_helper_for_instanceI11TypeInstPtr10TypeOopPtrEEbPKT_PKT0_.exit

7:                                                ; preds = %2
  %8 = load ptr, ptr %1, align 8
  %9 = getelementptr inbounds i8, ptr %8, i64 264
  %10 = load ptr, ptr %9, align 8
  %11 = tail call noundef zeroext i1 %10(ptr noundef nonnull align 8 dereferenceable(80) %1) #17
  br i1 %11, label %12, label %_ZN7TypePtr40is_same_java_type_as_helper_for_instanceI11TypeInstPtr10TypeOopPtrEEbPKT_PKT0_.exit

12:                                               ; preds = %7
  %13 = getelementptr inbounds i8, ptr %1, i64 16
  %14 = load i32, ptr %13, align 8
  %.not.i = icmp eq i32 %14, 21
  br i1 %.not.i, label %15, label %_ZN7TypePtr40is_same_java_type_as_helper_for_instanceI11TypeInstPtr10TypeOopPtrEEbPKT_PKT0_.exit

15:                                               ; preds = %12
  %16 = load ptr, ptr %0, align 8
  %17 = getelementptr inbounds i8, ptr %16, i64 232
  %18 = load ptr, ptr %17, align 8
  %19 = tail call noundef ptr %18(ptr noundef nonnull align 8 dereferenceable(80) %0) #17
  %20 = load ptr, ptr %1, align 8
  %21 = getelementptr inbounds i8, ptr %20, i64 232
  %22 = load ptr, ptr %21, align 8
  %23 = tail call noundef ptr %22(ptr noundef nonnull align 8 dereferenceable(80) %1) #17
  %24 = icmp eq ptr %19, %23
  br i1 %24, label %25, label %_ZN7TypePtr40is_same_java_type_as_helper_for_instanceI11TypeInstPtr10TypeOopPtrEEbPKT_PKT0_.exit

25:                                               ; preds = %15
  %26 = getelementptr inbounds i8, ptr %0, i64 64
  %27 = load ptr, ptr %26, align 8
  %28 = getelementptr inbounds i8, ptr %1, i64 64
  %29 = load ptr, ptr %28, align 8
  %30 = load ptr, ptr %27, align 8
  %31 = load ptr, ptr %30, align 8
  %32 = tail call noundef zeroext i1 %31(ptr noundef nonnull align 8 dereferenceable(64) %27, ptr noundef %29) #17
  br label %_ZN7TypePtr40is_same_java_type_as_helper_for_instanceI11TypeInstPtr10TypeOopPtrEEbPKT_PKT0_.exit

_ZN7TypePtr40is_same_java_type_as_helper_for_instanceI11TypeInstPtr10TypeOopPtrEEbPKT_PKT0_.exit: ; preds = %2, %7, %12, %15, %25
  %.0.i = phi i1 [ false, %7 ], [ false, %2 ], [ false, %12 ], [ false, %15 ], [ %32, %25 ]
  ret i1 %.0.i
}